target datalayout = "e-m:e-p270:32:32-p271:32:32-p272:64:64-i64:64-i128:128-f80:128-n8:16:32:64-S128"
target triple = "x86_64-pc-linux-gnu"

%struct.slurm_conf_t = type { i64, ptr, i16, ptr, ptr, ptr, ptr, ptr, i16, ptr, ptr, ptr, ptr, ptr, ptr, ptr, i16, ptr, ptr, ptr, ptr, i16, ptr, ptr, ptr, i64, ptr, ptr, ptr, ptr, i16, ptr, ptr, i16, i32, ptr, i32, ptr, i32, i32, ptr, ptr, i64, i64, ptr, i16, i16, ptr, i32, i32, ptr, i32, ptr, i32, i16, i16, i16, ptr, i16, i16, ptr, ptr, i32, i16, i16, ptr, i32, i16, ptr, ptr, ptr, ptr, i16, ptr, ptr, ptr, ptr, i32, ptr, ptr, ptr, ptr, i16, i16, ptr, i32, i32, i32, i16, i16, ptr, ptr, i16, ptr, ptr, i32, i32, i32, i32, i32, i64, i32, i32, i16, ptr, ptr, i32, ptr, ptr, ptr, i16, i32, ptr, ptr, i16, ptr, ptr, i32, i16, ptr, ptr, ptr, ptr, i32, i32, i16, i16, i32, ptr, i16, ptr, i32, i32, i32, i32, i32, i32, ptr, i16, ptr, ptr, i32, i16, ptr, i32, i16, i16, ptr, ptr, ptr, i16, ptr, ptr, ptr, ptr, i16, i16, ptr, i16, ptr, i16, ptr, i16, ptr, i16, ptr, ptr, ptr, ptr, i16, ptr, ptr, ptr, i32, ptr, i32, ptr, ptr, i16, ptr, ptr, i32, i16, ptr, ptr, i16, i16, ptr, i16, ptr, ptr, ptr, i32, ptr, i16, i16, ptr, ptr, ptr, ptr, ptr, ptr, ptr, ptr, i16, i32, i16, ptr, ptr, ptr, ptr, i32, ptr, ptr, ptr, i16, ptr, ptr, ptr, i16, ptr, i16, ptr, i16, i16, ptr }
%struct.slurm_jc_conf = type { i8, ptr, ptr, ptr, i32, i32, ptr, i8, ptr, i8 }
%struct.dirent = type { i64, i64, i16, i8, [256 x i8] }

@plugin_type = dso_local constant [20 x i8] c"job_container/tmpfs\00", align 16
@jc_conf = internal global ptr null, align 8
@.str.6 = private unnamed_addr constant [22 x i8] c"%s: Unable to open %s\00", align 1
@slurm_conf = external global %struct.slurm_conf_t, align 8
@.str.77 = private unnamed_addr constant [6 x i8] c"%s/%s\00", align 1
@__func__._clean_job_basepath = private unnamed_addr constant [20 x i8] c"_clean_job_basepath\00", align 1
@.str.81 = private unnamed_addr constant [2 x i8] c".\00", align 1
@.str.82 = private unnamed_addr constant [3 x i8] c"..\00", align 1
@.str.83 = private unnamed_addr constant [50 x i8] c"%s: %s: JOB_CONT: failed to unmount %s for job %u\00", align 1

; Function Attrs: nounwind uwtable
define internal i32 @_clean_job_basepath(i32 noundef %0) #0 {
  %2 = alloca i32, align 4
  %3 = alloca i32, align 4
  %4 = alloca ptr, align 8
  %5 = alloca ptr, align 8
  %6 = alloca ptr, align 8
  %7 = alloca i32, align 4
  store i32 %0, ptr %3, align 4
  call void @llvm.lifetime.start.p0(i64 8, ptr %4) #8
  call void @llvm.lifetime.start.p0(i64 8, ptr %5) #8
  call void @llvm.lifetime.start.p0(i64 8, ptr %6) #8
  store ptr null, ptr %6, align 8
  %8 = load ptr, ptr @jc_conf, align 8
  %9 = getelementptr inbounds nuw %struct.slurm_jc_conf, ptr %8, i32 0, i32 1
  %10 = load ptr, ptr %9, align 8
  %11 = call ptr @opendir(ptr noundef %10)
  store ptr %11, ptr %4, align 8
  %12 = icmp ne ptr %11, null
  br i1 %12, label %18, label %13

13:                                               ; preds = %1
  %14 = load ptr, ptr @jc_conf, align 8
  %15 = getelementptr inbounds nuw %struct.slurm_jc_conf, ptr %14, i32 0, i32 1
  %16 = load ptr, ptr %15, align 8
  %17 = call i32 (ptr, ...) @slurm_error(ptr noundef @.str.6, ptr noundef @__func__._clean_job_basepath, ptr noundef %16)
  store i32 -1, ptr %2, align 4
  store i32 1, ptr %7, align 4
  br label %81

18:                                               ; preds = %1
  br label %19

19:                                               ; preds = %77, %35, %18
  %20 = load ptr, ptr %4, align 8
  %21 = call ptr @readdir(ptr noundef %20)
  store ptr %21, ptr %5, align 8
  %22 = icmp ne ptr %21, null
  br i1 %22, label %23, label %78

23:                                               ; preds = %19
  %24 = load ptr, ptr %5, align 8
  %25 = getelementptr inbounds nuw %struct.dirent, ptr %24, i32 0, i32 4
  %26 = getelementptr inbounds [256 x i8], ptr %25, i64 0, i64 0
  %27 = call i32 @slurm_xstrcmp(ptr noundef %26, ptr noundef @.str.81)
  %28 = icmp ne i32 %27, 0
  br i1 %28, label %29, label %35

29:                                               ; preds = %23
  %30 = load ptr, ptr %5, align 8
  %31 = getelementptr inbounds nuw %struct.dirent, ptr %30, i32 0, i32 4
  %32 = getelementptr inbounds [256 x i8], ptr %31, i64 0, i64 0
  %33 = call i32 @slurm_xstrcmp(ptr noundef %32, ptr noundef @.str.82)
  %34 = icmp ne i32 %33, 0
  br i1 %34, label %36, label %35

35:                                               ; preds = %29, %23
  br label %19, !llvm.loop !19

36:                                               ; preds = %29
  %37 = load ptr, ptr %5, align 8
  %38 = getelementptr inbounds nuw %struct.dirent, ptr %37, i32 0, i32 3
  %39 = load i8, ptr %38, align 2
  %40 = zext i8 %39 to i32
  %41 = icmp eq i32 %40, 4
  br i1 %41, label %48, label %42

42:                                               ; preds = %36
  %43 = load ptr, ptr %5, align 8
  %44 = getelementptr inbounds nuw %struct.dirent, ptr %43, i32 0, i32 3
  %45 = load i8, ptr %44, align 2
  %46 = zext i8 %45 to i32
  %47 = icmp eq i32 %46, 0
  br i1 %47, label %48, label %77

48:                                               ; preds = %42, %36
  %49 = load ptr, ptr @jc_conf, align 8
  %50 = getelementptr inbounds nuw %struct.slurm_jc_conf, ptr %49, i32 0, i32 1
  %51 = load ptr, ptr %50, align 8
  %52 = load ptr, ptr %5, align 8
  %53 = getelementptr inbounds nuw %struct.dirent, ptr %52, i32 0, i32 4
  %54 = getelementptr inbounds [256 x i8], ptr %53, i64 0, i64 0
  call void (ptr, ptr, ...) @slurm_xstrfmtcat(ptr noundef %6, ptr noundef @.str.77, ptr noundef %51, ptr noundef %54)
  %55 = load ptr, ptr %6, align 8
  %56 = call i32 @umount2(ptr noundef %55, i32 noundef 2) #8
  %57 = icmp ne i32 %56, 0
  br i1 %57, label %58, label %76

58:                                               ; preds = %48
  br label %59

59:                                               ; preds = %58
  %60 = load i64, ptr getelementptr inbounds nuw (%struct.slurm_conf_t, ptr @slurm_conf, i32 0, i32 42), align 8
  %61 = and i64 %60, 16777216
  %62 = icmp ne i64 %61, 0
  br i1 %62, label %63, label %73

63:                                               ; preds = %59
  br label %64

64:                                               ; preds = %63
  %65 = call i32 @slurm_get_log_level()
  %66 = icmp sge i32 %65, 4
  br i1 %66, label %67, label %70

67:                                               ; preds = %64
  %68 = load ptr, ptr %6, align 8
  %69 = load i32, ptr %3, align 4
  call void (i32, ptr, ...) @slurm_log_var(i32 noundef 4, ptr noundef @.str.83, ptr noundef @plugin_type, ptr noundef @__func__._clean_job_basepath, ptr noundef %68, i32 noundef %69)
  br label %70

70:                                               ; preds = %67, %64
  br label %71

71:                                               ; preds = %70
  br label %72

72:                                               ; preds = %71
  br label %73

73:                                               ; preds = %72, %59
  br label %74

74:                                               ; preds = %73
  br label %75

75:                                               ; preds = %74
  br label %76

76:                                               ; preds = %75, %48
  call void @slurm_xfree(ptr noundef %6)
  br label %77

77:                                               ; preds = %76, %42
  br label %19, !llvm.loop !19

78:                                               ; preds = %19
  %79 = load ptr, ptr %4, align 8
  %80 = call i32 @closedir(ptr noundef %79)
  store i32 0, ptr %2, align 4
  store i32 1, ptr %7, align 4
  br label %81

81:                                               ; preds = %78, %13
  call void @llvm.lifetime.end.p0(i64 8, ptr %6) #8
  call void @llvm.lifetime.end.p0(i64 8, ptr %5) #8
  call void @llvm.lifetime.end.p0(i64 8, ptr %4) #8
  %82 = load i32, ptr %2, align 4
  ret i32 %82
}