; Function Attrs: nounwind uwtable
define internal fastcc range(i32 -1, 1) i32 @_clean_job_basepath(i32 noundef %0) unnamed_addr #0 {
  %2 = alloca ptr, align 8
  call void @llvm.lifetime.start.p0(i64 8, ptr nonnull %2) #12
  store ptr null, ptr %2, align 8
  %3 = load ptr, ptr @jc_conf, align 8
  %4 = getelementptr inbounds nuw i8, ptr %3, i64 8
  %5 = load ptr, ptr %4, align 8
  %6 = tail call ptr @opendir(ptr noundef %5)
  %.not = icmp eq ptr %6, null
  br i1 %.not, label %8, label %.preheader

.preheader:                                       ; preds = %1
  %7 = tail call ptr @readdir(ptr noundef nonnull %6) #12
  %.not1015 = icmp eq ptr %7, null
  br i1 %.not1015, label %._crit_edge, label %.lr.ph

8:                                                ; preds = %1
  %9 = load ptr, ptr @jc_conf, align 8
  %10 = getelementptr inbounds nuw i8, ptr %9, i64 8
  %11 = load ptr, ptr %10, align 8
  %12 = tail call i32 (ptr, ...) @slurm_error(ptr noundef nonnull @.str.6, ptr noundef nonnull @__func__._clean_job_basepath, ptr noundef %11) #12
  br label %38

.lr.ph:                                           ; preds = %.preheader, %.backedge
  %13 = phi ptr [ %18, %.backedge ], [ %7, %.preheader ]
  %14 = getelementptr inbounds nuw i8, ptr %13, i64 19
  %15 = call i32 @slurm_xstrcmp(ptr noundef nonnull %14, ptr noundef nonnull @.str.81) #12
  %.not11 = icmp eq i32 %15, 0
  br i1 %.not11, label %.backedge, label %16

16:                                               ; preds = %.lr.ph
  %17 = call i32 @slurm_xstrcmp(ptr noundef nonnull %14, ptr noundef nonnull @.str.82) #12
  %.not12 = icmp eq i32 %17, 0
  br i1 %.not12, label %.backedge, label %19

.backedge:                                        ; preds = %36, %19, %.lr.ph, %16
  %18 = call ptr @readdir(ptr noundef nonnull %6) #12
  %.not10 = icmp eq ptr %18, null
  br i1 %.not10, label %._crit_edge, label %.lr.ph, !llvm.loop !19

19:                                               ; preds = %16
  %20 = getelementptr inbounds nuw i8, ptr %13, i64 18
  %21 = load i8, ptr %20, align 2
  switch i8 %21, label %.backedge [
    i8 4, label %22
    i8 0, label %22
  ]

22:                                               ; preds = %19, %19
  %23 = load ptr, ptr @jc_conf, align 8
  %24 = getelementptr inbounds nuw i8, ptr %23, i64 8
  %25 = load ptr, ptr %24, align 8
  call void (ptr, ptr, ...) @slurm_xstrfmtcat(ptr noundef nonnull %2, ptr noundef nonnull @.str.77, ptr noundef %25, ptr noundef nonnull %14) #12
  %26 = load ptr, ptr %2, align 8
  %27 = call i32 @umount2(ptr noundef %26, i32 noundef 2) #12
  %.not13 = icmp eq i32 %27, 0
  br i1 %.not13, label %36, label %28

28:                                               ; preds = %22
  %29 = load i64, ptr getelementptr inbounds nuw (i8, ptr @slurm_conf, i64 320), align 8
  %30 = and i64 %29, 16777216
  %.not14 = icmp eq i64 %30, 0
  br i1 %.not14, label %36, label %31

31:                                               ; preds = %28
  %32 = call i32 @slurm_get_log_level() #12
  %33 = icmp sgt i32 %32, 3
  br i1 %33, label %34, label %36

34:                                               ; preds = %31
  %35 = load ptr, ptr %2, align 8
  call void (i32, ptr, ...) @slurm_log_var(i32 noundef 4, ptr noundef nonnull @.str.83, ptr noundef nonnull @plugin_type, ptr noundef nonnull @__func__._clean_job_basepath, ptr noundef %35, i32 noundef %0) #12
  br label %36

36:                                               ; preds = %28, %34, %31, %22
  call void @slurm_xfree(ptr noundef nonnull %2) #12
  br label %.backedge

._crit_edge:                                      ; preds = %.backedge, %.preheader
  %37 = call i32 @closedir(ptr noundef nonnull %6)
  br label %38

38:                                               ; preds = %._crit_edge, %8
  %.0 = phi i32 [ 0, %._crit_edge ], [ -1, %8 ]
  call void @llvm.lifetime.end.p0(i64 8, ptr nonnull %2) #12
  ret i32 %.0
}